target datalayout = "e-m:e-p270:32:32-p271:32:32-p272:64:64-i64:64-i128:128-f80:128-n8:16:32:64-S128"
target triple = "x86_64-pc-linux-gnu"

%class.OopHandle = type { ptr }
%class.ModuleEntry = type { %class.OopHandle, %class.OopHandle, ptr, ptr, %union.anon, ptr, ptr, i32, i8, i8, i8, i8, i8, i32, i64 }
%union.anon = type { ptr }

@g_assert_poison = external global ptr, align 8
@.str.9 = private unnamed_addr constant [44 x i8] c"src/hotspot/share/classfile/moduleEntry.cpp\00", align 1
@.str.21 = private unnamed_addr constant [43 x i8] c"guarantee(loader_data() != nullptr) failed\00", align 1
@.str.22 = private unnamed_addr constant [49 x i8] c"A module entry must be associated with a loader.\00", align 1

; Function Attrs: mustprogress nounwind uwtable
define linkonce_odr hidden noundef ptr @_ZNK11ModuleEntry11loader_dataEv(ptr noundef nonnull align 8 dereferenceable(80) %0) #1 comdat align 2 {
  %2 = alloca ptr, align 8
  store ptr %0, ptr %2, align 8
  %3 = load ptr, ptr %2, align 8
  %4 = getelementptr inbounds %class.ModuleEntry, ptr %3, i32 0, i32 3
  %5 = load ptr, ptr %4, align 8
  ret ptr %5
}

; Function Attrs: mustprogress nounwind uwtable
define hidden void @_ZN11ModuleEntry6verifyEv(ptr noundef nonnull align 8 dereferenceable(80) %0) #1 align 2 {
  %2 = alloca ptr, align 8
  store ptr %0, ptr %2, align 8
  %3 = load ptr, ptr %2, align 8
  br label %4

4:                                                ; preds = %1
  %5 = call noundef ptr @_ZNK11ModuleEntry11loader_dataEv(ptr noundef nonnull align 8 dereferenceable(80) %3)
  %6 = icmp ne ptr %5, null
  br i1 %6, label %9, label %7

7:                                                ; preds = %4
  %8 = load ptr, ptr @g_assert_poison, align 8
  store i8 88, ptr %8, align 1
  call void (ptr, i32, ptr, ptr, ...) @_Z15report_vm_errorPKciS0_S0_z(ptr noundef @.str.9, i32 noundef 762, ptr noundef @.str.21, ptr noundef @.str.22) #13
  unreachable

9:                                                ; preds = %4
  br label %10

10:                                               ; preds = %9
  ret void
}