; Function Attrs: mustprogress nounwind uwtable
define hidden void @_ZN11ModuleEntry6verifyEv(ptr nocapture noundef nonnull readonly align 8 dereferenceable(80) %0) local_unnamed_addr #0 align 2 {
  %2 = getelementptr inbounds i8, ptr %0, i64 24
  %3 = load ptr, ptr %2, align 8
  %.not = icmp eq ptr %3, null
  br i1 %.not, label %4, label %6

4:                                                ; preds = %1
  %5 = load ptr, ptr @g_assert_poison, align 8
  store i8 88, ptr %5, align 1
  tail call void (ptr, i32, ptr, ptr, ...) @_Z15report_vm_errorPKciS0_S0_z(ptr noundef nonnull @.str.9, i32 noundef 762, ptr noundef nonnull @.str.21, ptr noundef nonnull @.str.22) #18
  unreachable

6:                                                ; preds = %1
  ret void
}